target datalayout = "e-m:e-p270:32:32-p271:32:32-p272:64:64-i64:64-i128:128-f80:128-n8:16:32:64-S128"
target triple = "x86_64-pc-linux-gnu"

%struct.lxb_encoding_data = type { i32, ptr, ptr, ptr, ptr, ptr }
%struct._dom_decoding_encoding_ctx = type { i8, %struct.lxb_encoding_encode_t, %struct.lxb_encoding_decode_t, ptr, ptr, [4096 x i8], [4096 x i32] }
%struct.lxb_encoding_encode_t = type { ptr, ptr, i64, i64, ptr, i64, i32 }
%struct.lxb_encoding_decode_t = type { ptr, ptr, i64, i64, ptr, i64, i32, i32, i8, i8, i32, %union.anon.8 }
%union.anon.8 = type { %struct.lxb_encoding_ctx_2022_jp_t }
%struct.lxb_encoding_ctx_2022_jp_t = type { i8, i8, i32, i32, i8 }

@.str.108 = private unnamed_addr constant [4 x i8] c"\EF\BF\BD\00", align 1

; Function Attrs: nounwind uwtable
define internal void @lxb_encoding_decode_buf_used_set(ptr noundef %0, i64 noundef %1) #0 {
  %3 = alloca ptr, align 8
  %4 = alloca i64, align 8
  store ptr %0, ptr %3, align 8
  store i64 %1, ptr %4, align 8
  %5 = load i64, ptr %4, align 8
  %6 = load ptr, ptr %3, align 8
  %7 = getelementptr inbounds %struct.lxb_encoding_decode_t, ptr %6, i32 0, i32 3
  store i64 %5, ptr %7, align 8
  ret void
}

; Function Attrs: nounwind uwtable
define internal void @lxb_encoding_encode_buf_used_set(ptr noundef %0, i64 noundef %1) #0 {
  %3 = alloca ptr, align 8
  %4 = alloca i64, align 8
  store ptr %0, ptr %3, align 8
  store i64 %1, ptr %4, align 8
  %5 = load i64, ptr %4, align 8
  %6 = load ptr, ptr %3, align 8
  %7 = getelementptr inbounds %struct.lxb_encoding_encode_t, ptr %6, i32 0, i32 3
  store i64 %5, ptr %7, align 8
  ret void
}

; Function Attrs: nounwind uwtable
define internal i64 @lxb_encoding_encode_buf_used(ptr noundef %0) #0 {
  %2 = alloca ptr, align 8
  store ptr %0, ptr %2, align 8
  %3 = load ptr, ptr %2, align 8
  %4 = getelementptr inbounds %struct.lxb_encoding_encode_t, ptr %3, i32 0, i32 3
  %5 = load i64, ptr %4, align 8
  ret i64 %5
}

; Function Attrs: nounwind uwtable
define internal i64 @lxb_encoding_decode_buf_used(ptr noundef %0) #0 {
  %2 = alloca ptr, align 8
  store ptr %0, ptr %2, align 8
  %3 = load ptr, ptr %2, align 8
  %4 = getelementptr inbounds %struct.lxb_encoding_decode_t, ptr %3, i32 0, i32 3
  %5 = load i64, ptr %4, align 8
  ret i64 %5
}

; Function Attrs: nounwind uwtable
define internal zeroext i1 @dom_decode_encode_slow_path(ptr noundef %0, ptr noundef %1, ptr noundef %2, ptr noundef %3, ptr noundef %4, ptr noundef %5, ptr noundef %6, ptr noundef %7) #0 {
  %9 = alloca i1, align 1
  %10 = alloca ptr, align 8
  %11 = alloca ptr, align 8
  %12 = alloca ptr, align 8
  %13 = alloca ptr, align 8
  %14 = alloca ptr, align 8
  %15 = alloca ptr, align 8
  %16 = alloca ptr, align 8
  %17 = alloca ptr, align 8
  %18 = alloca ptr, align 8
  %19 = alloca i32, align 4
  %20 = alloca i32, align 4
  %21 = alloca ptr, align 8
  %22 = alloca i64, align 8
  %23 = alloca ptr, align 8
  store ptr %0, ptr %10, align 8
  store ptr %1, ptr %11, align 8
  store ptr %2, ptr %12, align 8
  store ptr %3, ptr %13, align 8
  store ptr %4, ptr %14, align 8
  store ptr %5, ptr %15, align 8
  store ptr %6, ptr %16, align 8
  store ptr %7, ptr %17, align 8
  %24 = load ptr, ptr %13, align 8
  %25 = load ptr, ptr %24, align 8
  store ptr %25, ptr %18, align 8
  br label %26

26:                                               ; preds = %85, %8
  %27 = load ptr, ptr %15, align 8
  %28 = getelementptr inbounds %struct._dom_decoding_encoding_ctx, ptr %27, i32 0, i32 4
  %29 = load ptr, ptr %28, align 8
  %30 = getelementptr inbounds %struct.lxb_encoding_data, ptr %29, i32 0, i32 2
  %31 = load ptr, ptr %30, align 8
  %32 = load ptr, ptr %15, align 8
  %33 = getelementptr inbounds %struct._dom_decoding_encoding_ctx, ptr %32, i32 0, i32 2
  %34 = load ptr, ptr %14, align 8
  %35 = call i32 %31(ptr noundef %33, ptr noundef %18, ptr noundef %34)
  store i32 %35, ptr %19, align 4
  %36 = load ptr, ptr %15, align 8
  %37 = getelementptr inbounds %struct._dom_decoding_encoding_ctx, ptr %36, i32 0, i32 6
  %38 = getelementptr inbounds [4096 x i32], ptr %37, i64 0, i64 0
  store ptr %38, ptr %21, align 8
  %39 = load ptr, ptr %15, align 8
  %40 = getelementptr inbounds %struct._dom_decoding_encoding_ctx, ptr %39, i32 0, i32 2
  %41 = call i64 @lxb_encoding_decode_buf_used(ptr noundef %40)
  store i64 %41, ptr %22, align 8
  %42 = load ptr, ptr %15, align 8
  %43 = getelementptr inbounds %struct._dom_decoding_encoding_ctx, ptr %42, i32 0, i32 6
  %44 = getelementptr inbounds [4096 x i32], ptr %43, i64 0, i64 0
  %45 = load i64, ptr %22, align 8
  %46 = getelementptr inbounds i32, ptr %44, i64 %45
  store ptr %46, ptr %23, align 8
  br label %47

47:                                               ; preds = %79, %26
  %48 = load ptr, ptr %15, align 8
  %49 = getelementptr inbounds %struct._dom_decoding_encoding_ctx, ptr %48, i32 0, i32 3
  %50 = load ptr, ptr %49, align 8
  %51 = getelementptr inbounds %struct.lxb_encoding_data, ptr %50, i32 0, i32 1
  %52 = load ptr, ptr %51, align 8
  %53 = load ptr, ptr %15, align 8
  %54 = getelementptr inbounds %struct._dom_decoding_encoding_ctx, ptr %53, i32 0, i32 1
  %55 = load ptr, ptr %23, align 8
  %56 = call i32 %52(ptr noundef %54, ptr noundef %21, ptr noundef %55)
  store i32 %56, ptr %20, align 4
  %57 = load i32, ptr %20, align 4
  %58 = icmp ne i32 %57, 1
  br i1 %58, label %59, label %60

59:                                               ; preds = %47
  br label %60

60:                                               ; preds = %59, %47
  %61 = phi i1 [ false, %47 ], [ true, %59 ]
  call void @llvm.assume(i1 %61)
  %62 = load ptr, ptr %10, align 8
  %63 = load ptr, ptr %11, align 8
  %64 = load ptr, ptr %12, align 8
  %65 = load ptr, ptr %15, align 8
  %66 = getelementptr inbounds %struct._dom_decoding_encoding_ctx, ptr %65, i32 0, i32 1
  %67 = call i64 @lxb_encoding_encode_buf_used(ptr noundef %66)
  %68 = load ptr, ptr %15, align 8
  %69 = getelementptr inbounds %struct._dom_decoding_encoding_ctx, ptr %68, i32 0, i32 5
  %70 = getelementptr inbounds [4096 x i8], ptr %69, i64 0, i64 0
  %71 = load i64, ptr %22, align 8
  %72 = load ptr, ptr %16, align 8
  %73 = load ptr, ptr %17, align 8
  %74 = call zeroext i1 @dom_process_parse_chunk(ptr noundef %62, ptr noundef %63, ptr noundef %64, i64 noundef %67, ptr noundef %70, i64 noundef %71, ptr noundef %72, ptr noundef %73)
  br i1 %74, label %76, label %75

75:                                               ; preds = %60
  br label %91

76:                                               ; preds = %60
  %77 = load ptr, ptr %15, align 8
  %78 = getelementptr inbounds %struct._dom_decoding_encoding_ctx, ptr %77, i32 0, i32 1
  call void @lxb_encoding_encode_buf_used_set(ptr noundef %78, i64 noundef 0)
  br label %79

79:                                               ; preds = %76
  %80 = load i32, ptr %20, align 4
  %81 = icmp eq i32 %80, 15
  br i1 %81, label %47, label %82

82:                                               ; preds = %79
  %83 = load ptr, ptr %15, align 8
  %84 = getelementptr inbounds %struct._dom_decoding_encoding_ctx, ptr %83, i32 0, i32 2
  call void @lxb_encoding_decode_buf_used_set(ptr noundef %84, i64 noundef 0)
  br label %85

85:                                               ; preds = %82
  %86 = load i32, ptr %19, align 4
  %87 = icmp eq i32 %86, 15
  br i1 %87, label %26, label %88

88:                                               ; preds = %85
  %89 = load ptr, ptr %18, align 8
  %90 = load ptr, ptr %13, align 8
  store ptr %89, ptr %90, align 8
  store i1 true, ptr %9, align 1
  br label %94

91:                                               ; preds = %75
  %92 = load ptr, ptr %18, align 8
  %93 = load ptr, ptr %13, align 8
  store ptr %92, ptr %93, align 8
  store i1 false, ptr %9, align 1
  br label %94

94:                                               ; preds = %91, %88
  %95 = load i1, ptr %9, align 1
  ret i1 %95
}

; Function Attrs: nounwind uwtable
define internal zeroext i1 @dom_decode_encode_fast_path(ptr noundef %0, ptr noundef %1, ptr noundef %2, ptr noundef %3, ptr noundef %4, ptr noundef %5, ptr noundef %6, ptr noundef %7) #0 {
  %9 = alloca i1, align 1
  %10 = alloca ptr, align 8
  %11 = alloca ptr, align 8
  %12 = alloca ptr, align 8
  %13 = alloca ptr, align 8
  %14 = alloca ptr, align 8
  %15 = alloca ptr, align 8
  %16 = alloca ptr, align 8
  %17 = alloca ptr, align 8
  %18 = alloca ptr, align 8
  %19 = alloca ptr, align 8
  %20 = alloca ptr, align 8
  %21 = alloca i32, align 4
  %22 = alloca i64, align 8
  store ptr %0, ptr %10, align 8
  store ptr %1, ptr %11, align 8
  store ptr %2, ptr %12, align 8
  store ptr %3, ptr %13, align 8
  store ptr %4, ptr %14, align 8
  store ptr %5, ptr %15, align 8
  store ptr %6, ptr %16, align 8
  store ptr %7, ptr %17, align 8
  %23 = load ptr, ptr %13, align 8
  %24 = load ptr, ptr %23, align 8
  store ptr %24, ptr %18, align 8
  %25 = load ptr, ptr %18, align 8
  store ptr %25, ptr %19, align 8
  br label %26

26:                                               ; preds = %79, %8
  %27 = load ptr, ptr %18, align 8
  %28 = load ptr, ptr %14, align 8
  %29 = icmp ne ptr %27, %28
  br i1 %29, label %30, label %80

30:                                               ; preds = %26
  %31 = load ptr, ptr %18, align 8
  store ptr %31, ptr %20, align 8
  %32 = load ptr, ptr %15, align 8
  %33 = getelementptr inbounds %struct._dom_decoding_encoding_ctx, ptr %32, i32 0, i32 2
  %34 = load ptr, ptr %14, align 8
  %35 = call i32 @lxb_encoding_decode_utf_8_single(ptr noundef %33, ptr noundef %18, ptr noundef %34)
  store i32 %35, ptr %21, align 4
  %36 = load i32, ptr %21, align 4
  %37 = icmp ugt i32 %36, 1114111
  %38 = xor i1 %37, true
  %39 = xor i1 %38, true
  %40 = zext i1 %39 to i32
  %41 = sext i32 %40 to i64
  %42 = icmp ne i64 %41, 0
  br i1 %42, label %43, label %79

43:                                               ; preds = %30
  %44 = load ptr, ptr %18, align 8
  %45 = load ptr, ptr %20, align 8
  %46 = ptrtoint ptr %44 to i64
  %47 = ptrtoint ptr %45 to i64
  %48 = sub i64 %46, %47
  store i64 %48, ptr %22, align 8
  %49 = load ptr, ptr %10, align 8
  %50 = load ptr, ptr %11, align 8
  %51 = load ptr, ptr %12, align 8
  %52 = load ptr, ptr %18, align 8
  %53 = load ptr, ptr %19, align 8
  %54 = ptrtoint ptr %52 to i64
  %55 = ptrtoint ptr %53 to i64
  %56 = sub i64 %54, %55
  %57 = load i64, ptr %22, align 8
  %58 = sub i64 %56, %57
  %59 = load ptr, ptr %19, align 8
  %60 = load ptr, ptr %18, align 8
  %61 = load ptr, ptr %19, align 8
  %62 = ptrtoint ptr %60 to i64
  %63 = ptrtoint ptr %61 to i64
  %64 = sub i64 %62, %63
  %65 = load ptr, ptr %16, align 8
  %66 = load ptr, ptr %17, align 8
  %67 = call zeroext i1 @dom_process_parse_chunk(ptr noundef %49, ptr noundef %50, ptr noundef %51, i64 noundef %58, ptr noundef %59, i64 noundef %64, ptr noundef %65, ptr noundef %66)
  br i1 %67, label %69, label %68

68:                                               ; preds = %43
  br label %106

69:                                               ; preds = %43
  %70 = load ptr, ptr %10, align 8
  %71 = load ptr, ptr %11, align 8
  %72 = load ptr, ptr %12, align 8
  %73 = load ptr, ptr %16, align 8
  %74 = load ptr, ptr %17, align 8
  %75 = call zeroext i1 @dom_process_parse_chunk(ptr noundef %70, ptr noundef %71, ptr noundef %72, i64 noundef 3, ptr noundef @.str.108, i64 noundef 0, ptr noundef %73, ptr noundef %74)
  br i1 %75, label %77, label %76

76:                                               ; preds = %69
  br label %106

77:                                               ; preds = %69
  %78 = load ptr, ptr %18, align 8
  store ptr %78, ptr %19, align 8
  br label %79

79:                                               ; preds = %77, %30
  br label %26

80:                                               ; preds = %26
  %81 = load ptr, ptr %18, align 8
  %82 = load ptr, ptr %19, align 8
  %83 = icmp ne ptr %81, %82
  br i1 %83, label %84, label %103

84:                                               ; preds = %80
  %85 = load ptr, ptr %10, align 8
  %86 = load ptr, ptr %11, align 8
  %87 = load ptr, ptr %12, align 8
  %88 = load ptr, ptr %18, align 8
  %89 = load ptr, ptr %19, align 8
  %90 = ptrtoint ptr %88 to i64
  %91 = ptrtoint ptr %89 to i64
  %92 = sub i64 %90, %91
  %93 = load ptr, ptr %19, align 8
  %94 = load ptr, ptr %18, align 8
  %95 = load ptr, ptr %19, align 8
  %96 = ptrtoint ptr %94 to i64
  %97 = ptrtoint ptr %95 to i64
  %98 = sub i64 %96, %97
  %99 = load ptr, ptr %16, align 8
  %100 = load ptr, ptr %17, align 8
  %101 = call zeroext i1 @dom_process_parse_chunk(ptr noundef %85, ptr noundef %86, ptr noundef %87, i64 noundef %92, ptr noundef %93, i64 noundef %98, ptr noundef %99, ptr noundef %100)
  br i1 %101, label %103, label %102

102:                                              ; preds = %84
  br label %106

103:                                              ; preds = %84, %80
  %104 = load ptr, ptr %18, align 8
  %105 = load ptr, ptr %13, align 8
  store ptr %104, ptr %105, align 8
  store i1 true, ptr %9, align 1
  br label %109

106:                                              ; preds = %102, %76, %68
  %107 = load ptr, ptr %18, align 8
  %108 = load ptr, ptr %13, align 8
  store ptr %107, ptr %108, align 8
  store i1 false, ptr %9, align 1
  br label %109

109:                                              ; preds = %106, %103
  %110 = load i1, ptr %9, align 1
  ret i1 %110
}

; Function Attrs: nounwind uwtable
define internal zeroext i1 @dom_parse_decode_encode_step(ptr noundef %0, ptr noundef %1, ptr noundef %2, ptr noundef %3, ptr noundef %4, ptr noundef %5, ptr noundef %6, ptr noundef %7) #0 {
  %9 = alloca i1, align 1
  %10 = alloca ptr, align 8
  %11 = alloca ptr, align 8
  %12 = alloca ptr, align 8
  %13 = alloca ptr, align 8
  %14 = alloca ptr, align 8
  %15 = alloca ptr, align 8
  %16 = alloca ptr, align 8
  %17 = alloca ptr, align 8
  store ptr %0, ptr %10, align 8
  store ptr %1, ptr %11, align 8
  store ptr %2, ptr %12, align 8
  store ptr %3, ptr %13, align 8
  store ptr %4, ptr %14, align 8
  store ptr %5, ptr %15, align 8
  store ptr %6, ptr %16, align 8
  store ptr %7, ptr %17, align 8
  %18 = load ptr, ptr %15, align 8
  %19 = getelementptr inbounds %struct._dom_decoding_encoding_ctx, ptr %18, i32 0, i32 0
  %20 = load i8, ptr %19, align 8
  %21 = trunc i8 %20 to i1
  br i1 %21, label %22, label %32

22:                                               ; preds = %8
  %23 = load ptr, ptr %10, align 8
  %24 = load ptr, ptr %11, align 8
  %25 = load ptr, ptr %12, align 8
  %26 = load ptr, ptr %13, align 8
  %27 = load ptr, ptr %14, align 8
  %28 = load ptr, ptr %15, align 8
  %29 = load ptr, ptr %16, align 8
  %30 = load ptr, ptr %17, align 8
  %31 = call zeroext i1 @dom_decode_encode_fast_path(ptr noundef %23, ptr noundef %24, ptr noundef %25, ptr noundef %26, ptr noundef %27, ptr noundef %28, ptr noundef %29, ptr noundef %30)
  store i1 %31, ptr %9, align 1
  br label %42

32:                                               ; preds = %8
  %33 = load ptr, ptr %10, align 8
  %34 = load ptr, ptr %11, align 8
  %35 = load ptr, ptr %12, align 8
  %36 = load ptr, ptr %13, align 8
  %37 = load ptr, ptr %14, align 8
  %38 = load ptr, ptr %15, align 8
  %39 = load ptr, ptr %16, align 8
  %40 = load ptr, ptr %17, align 8
  %41 = call zeroext i1 @dom_decode_encode_slow_path(ptr noundef %33, ptr noundef %34, ptr noundef %35, ptr noundef %36, ptr noundef %37, ptr noundef %38, ptr noundef %39, ptr noundef %40)
  store i1 %41, ptr %9, align 1
  br label %42

42:                                               ; preds = %32, %22
  %43 = load i1, ptr %9, align 1
  ret i1 %43
}