; Function Attrs: nounwind uwtable
define internal fastcc noundef zeroext i1 @dom_parse_decode_encode_step(ptr noundef %0, ptr noundef %1, ptr noundef %2, ptr nocapture noundef %3, ptr noundef %4, ptr noundef %5, ptr noundef %6, ptr noundef %7) unnamed_addr #0 {
  %9 = alloca ptr, align 8
  %10 = alloca ptr, align 8
  %11 = alloca ptr, align 8
  %12 = load i8, ptr %5, align 8
  %13 = and i8 %12, 1
  %.not = icmp eq i8 %13, 0
  br i1 %.not, label %39, label %14

14:                                               ; preds = %8
  call void @llvm.lifetime.start.p0(i64 8, ptr nonnull %11)
  %15 = load ptr, ptr %3, align 8
  store ptr %15, ptr %11, align 8
  %.not39.i = icmp eq ptr %15, %4
  br i1 %.not39.i, label %dom_decode_encode_fast_path.exit, label %.lr.ph.i

.lr.ph.i:                                         ; preds = %14
  %16 = getelementptr inbounds i8, ptr %5, i64 64
  br label %17

17:                                               ; preds = %32, %.lr.ph.i
  %18 = phi ptr [ %15, %.lr.ph.i ], [ %33, %32 ]
  %.03140.i = phi ptr [ %15, %.lr.ph.i ], [ %.1.i, %32 ]
  %19 = call i32 @lxb_encoding_decode_utf_8_single(ptr noundef nonnull %16, ptr noundef nonnull %11, ptr noundef %4) #11
  %20 = icmp ugt i32 %19, 1114111
  %.pre.i = load ptr, ptr %11, align 8
  br i1 %20, label %21, label %32

21:                                               ; preds = %17
  %22 = ptrtoint ptr %.pre.i to i64
  %23 = ptrtoint ptr %18 to i64
  %.neg.i = sub i64 %23, %22
  %24 = ptrtoint ptr %.03140.i to i64
  %25 = sub i64 %22, %24
  %26 = add i64 %.neg.i, %25
  %27 = call fastcc zeroext i1 @dom_process_parse_chunk(ptr noundef %0, ptr noundef %1, ptr noundef %2, i64 noundef %26, ptr noundef %.03140.i, i64 noundef %25, ptr noundef %6, ptr noundef %7)
  br i1 %27, label %28, label %.loopexit.i

28:                                               ; preds = %21
  %29 = call fastcc zeroext i1 @dom_process_parse_chunk(ptr noundef %0, ptr noundef %1, ptr noundef %2, i64 noundef 3, ptr noundef nonnull @.str.108, i64 noundef 0, ptr noundef %6, ptr noundef %7)
  br i1 %29, label %30, label %.loopexit.i

30:                                               ; preds = %28
  %31 = load ptr, ptr %11, align 8
  br label %32

32:                                               ; preds = %30, %17
  %33 = phi ptr [ %31, %30 ], [ %.pre.i, %17 ]
  %.1.i = phi ptr [ %31, %30 ], [ %.03140.i, %17 ]
  %.not.i = icmp eq ptr %33, %4
  br i1 %.not.i, label %._crit_edge.i, label %17

._crit_edge.i:                                    ; preds = %32
  %.not35.i = icmp eq ptr %.1.i, %4
  br i1 %.not35.i, label %dom_decode_encode_fast_path.exit, label %34

34:                                               ; preds = %._crit_edge.i
  %35 = ptrtoint ptr %4 to i64
  %36 = ptrtoint ptr %.1.i to i64
  %37 = sub i64 %35, %36
  %38 = call fastcc zeroext i1 @dom_process_parse_chunk(ptr noundef %0, ptr noundef %1, ptr noundef %2, i64 noundef %37, ptr noundef %.1.i, i64 noundef %37, ptr noundef %6, ptr noundef %7)
  br i1 %38, label %dom_decode_encode_fast_path.exit, label %.loopexit.i

.loopexit.i:                                      ; preds = %28, %21, %34
  br label %dom_decode_encode_fast_path.exit

dom_decode_encode_fast_path.exit:                 ; preds = %14, %._crit_edge.i, %34, %.loopexit.i
  %.0.i = phi i1 [ false, %.loopexit.i ], [ true, %34 ], [ true, %._crit_edge.i ], [ true, %14 ]
  %storemerge.i = load ptr, ptr %11, align 8
  store ptr %storemerge.i, ptr %3, align 8
  call void @llvm.lifetime.end.p0(i64 8, ptr nonnull %11)
  br label %66

39:                                               ; preds = %8
  call void @llvm.lifetime.start.p0(i64 8, ptr nonnull %9)
  call void @llvm.lifetime.start.p0(i64 8, ptr nonnull %10)
  %40 = load ptr, ptr %3, align 8
  store ptr %40, ptr %9, align 8
  %41 = getelementptr inbounds i8, ptr %5, i64 152
  %42 = getelementptr inbounds i8, ptr %5, i64 64
  %43 = getelementptr inbounds i8, ptr %5, i64 4256
  %44 = getelementptr i8, ptr %5, i64 88
  %45 = getelementptr inbounds i8, ptr %5, i64 144
  %46 = getelementptr inbounds i8, ptr %5, i64 8
  %47 = getelementptr i8, ptr %5, i64 32
  %48 = getelementptr inbounds i8, ptr %5, i64 160
  br label %49

49:                                               ; preds = %64, %39
  %50 = load ptr, ptr %41, align 8
  %51 = getelementptr inbounds i8, ptr %50, i64 16
  %52 = load ptr, ptr %51, align 8
  %53 = call i32 %52(ptr noundef nonnull %42, ptr noundef nonnull %9, ptr noundef %4) #11
  store ptr %43, ptr %10, align 8
  %.val.i = load i64, ptr %44, align 8
  %54 = getelementptr inbounds i32, ptr %43, i64 %.val.i
  br label %55

55:                                               ; preds = %62, %49
  %56 = load ptr, ptr %45, align 8
  %57 = getelementptr inbounds i8, ptr %56, i64 8
  %58 = load ptr, ptr %57, align 8
  %59 = call i32 %58(ptr noundef nonnull %46, ptr noundef nonnull %10, ptr noundef nonnull %54) #11
  %60 = icmp ne i32 %59, 1
  call void @llvm.assume(i1 %60)
  %.val26.i = load i64, ptr %47, align 8
  %61 = call fastcc zeroext i1 @dom_process_parse_chunk(ptr noundef %0, ptr noundef %1, ptr noundef %2, i64 noundef %.val26.i, ptr noundef nonnull %48, i64 noundef %.val.i, ptr noundef %6, ptr noundef %7)
  br i1 %61, label %62, label %dom_decode_encode_slow_path.exit

62:                                               ; preds = %55
  store i64 0, ptr %47, align 8
  %63 = icmp eq i32 %59, 15
  br i1 %63, label %55, label %64

64:                                               ; preds = %62
  store i64 0, ptr %44, align 8
  %65 = icmp eq i32 %53, 15
  br i1 %65, label %49, label %dom_decode_encode_slow_path.exit

dom_decode_encode_slow_path.exit:                 ; preds = %64, %55
  %storemerge.i19 = load ptr, ptr %9, align 8
  store ptr %storemerge.i19, ptr %3, align 8
  call void @llvm.lifetime.end.p0(i64 8, ptr nonnull %9)
  call void @llvm.lifetime.end.p0(i64 8, ptr nonnull %10)
  br label %66

66:                                               ; preds = %dom_decode_encode_slow_path.exit, %dom_decode_encode_fast_path.exit
  %.0 = phi i1 [ %.0.i, %dom_decode_encode_fast_path.exit ], [ %61, %dom_decode_encode_slow_path.exit ]
  ret i1 %.0
}